; Function Attrs: mustprogress uwtable
define noundef nonnull align 8 dereferenceable(217) ptr @_ZNK6icu_7714ResourceBundle9getLocaleEv(ptr noundef nonnull align 8 captures(none) dereferenceable(24) %0) local_unnamed_addr #1 align 2 personality ptr @__gxx_personality_v0 {
  %2 = alloca i32, align 4
  tail call void @umtx_lock_77(ptr noundef nonnull @_ZZNK6icu_7714ResourceBundle9getLocaleEvE11gLocaleLock)
  %3 = getelementptr inbounds nuw i8, ptr %0, i64 16
  %4 = load ptr, ptr %3, align 8, !tbaa !6
  %.not = icmp eq ptr %4, null
  br i1 %.not, label %5, label %28

5:                                                ; preds = %1
  call void @llvm.lifetime.start.p0(i64 4, ptr nonnull %2) #8
  store i32 0, ptr %2, align 4, !tbaa !18
  %6 = getelementptr inbounds nuw i8, ptr %0, i64 8
  %7 = load ptr, ptr %6, align 8, !tbaa !17
  %8 = invoke ptr @ures_getLocaleInternal_77(ptr noundef %7, ptr noundef nonnull %2)
          to label %9 unwind label %18

9:                                                ; preds = %5
  %10 = call noundef ptr @_ZN6icu_777UMemorynwEm(i64 noundef 224) #8
  %11 = icmp eq ptr %10, null
  br i1 %11, label %14, label %12

12:                                               ; preds = %9
  invoke void @_ZN6icu_776LocaleC1EPKcS2_S2_S2_(ptr noundef nonnull align 8 dereferenceable(217) %10, ptr noundef %8, ptr noundef null, ptr noundef null, ptr noundef null)
          to label %13 unwind label %20

13:                                               ; preds = %12
  store ptr %10, ptr %3, align 8, !tbaa !6
  br label %16

14:                                               ; preds = %9
  store ptr null, ptr %3, align 8, !tbaa !6
  %15 = invoke noundef nonnull align 8 dereferenceable(217) ptr @_ZN6icu_776Locale10getDefaultEv()
          to label %16 unwind label %22

16:                                               ; preds = %13, %14
  %17 = phi ptr [ %15, %14 ], [ %10, %13 ]
  call void @llvm.lifetime.end.p0(i64 4, ptr nonnull %2) #8
  br label %28

18:                                               ; preds = %5
  %19 = landingpad { ptr, i32 }
          cleanup
  br label %24

20:                                               ; preds = %12
  %21 = landingpad { ptr, i32 }
          cleanup
  call void @_ZN6icu_777UMemorydlEPv(ptr noundef nonnull %10) #8
  br label %24

22:                                               ; preds = %14
  %23 = landingpad { ptr, i32 }
          cleanup
  br label %24

24:                                               ; preds = %22, %20, %18
  %.pn.pn = phi { ptr, i32 } [ %19, %18 ], [ %23, %22 ], [ %21, %20 ]
  call void @llvm.lifetime.end.p0(i64 4, ptr nonnull %2) #8
  invoke void @umtx_unlock_77(ptr noundef nonnull @_ZZNK6icu_7714ResourceBundle9getLocaleEvE11gLocaleLock)
          to label %_ZN6icu_775MutexD2Ev.exit unwind label %25

25:                                               ; preds = %24
  %26 = landingpad { ptr, i32 }
          catch ptr null
  %27 = extractvalue { ptr, i32 } %26, 0
  call void @__clang_call_terminate(ptr %27) #9
  unreachable

_ZN6icu_775MutexD2Ev.exit:                        ; preds = %24
  resume { ptr, i32 } %.pn.pn

28:                                               ; preds = %1, %16
  %.0 = phi ptr [ %17, %16 ], [ %4, %1 ]
  invoke void @umtx_unlock_77(ptr noundef nonnull @_ZZNK6icu_7714ResourceBundle9getLocaleEvE11gLocaleLock)
          to label %_ZN6icu_775MutexD2Ev.exit18 unwind label %29

29:                                               ; preds = %28
  %30 = landingpad { ptr, i32 }
          catch ptr null
  %31 = extractvalue { ptr, i32 } %30, 0
  call void @__clang_call_terminate(ptr %31) #9
  unreachable

_ZN6icu_775MutexD2Ev.exit18:                      ; preds = %28
  ret ptr %.0
}